; Function Attrs: mustprogress nounwind uwtable
define internal void @_ZN7Imf_3_412_GLOBAL__N_114TileBufferTaskD2Ev(ptr noundef nonnull align 8 dereferenceable(32) initializes((0, 8)) %0) unnamed_addr #4 align 2 personality ptr @__gxx_personality_v0 {
  store ptr getelementptr inbounds nuw inrange(-16, 24) (i8, ptr @_ZTVN7Imf_3_412_GLOBAL__N_114TileBufferTaskE, i64 16), ptr %0, align 8, !tbaa !112
  %2 = getelementptr inbounds nuw i8, ptr %0, i64 24
  %3 = load ptr, ptr %2, align 8, !tbaa !214
  %4 = getelementptr inbounds nuw i8, ptr %3, i64 144
  invoke void @_ZN13IlmThread_3_49Semaphore4postEv(ptr noundef nonnull align 8 dereferenceable(40) %4)
          to label %_ZN7Imf_3_412_GLOBAL__N_110TileBuffer4postEv.exit unwind label %5

_ZN7Imf_3_412_GLOBAL__N_110TileBuffer4postEv.exit: ; preds = %1
  tail call void @_ZN13IlmThread_3_44TaskD2Ev(ptr noundef nonnull align 8 dereferenceable(16) %0) #25
  ret void

5:                                                ; preds = %1
  %6 = landingpad { ptr, i32 }
          catch ptr null
  %7 = extractvalue { ptr, i32 } %6, 0
  tail call void @__clang_call_terminate(ptr %7) #28
  unreachable
}